; Function Attrs: nounwind uwtable
define ptr @l_Lean_Expr_headNumArgs_go___boxed(ptr noundef %0, ptr noundef %1) local_unnamed_addr #0 {
  br label %.outer.i

.outer.i:                                         ; preds = %.outer.i.backedge, %2
  %.012.ph.i = phi ptr [ %1, %2 ], [ %.012.ph.i.be, %.outer.i.backedge ]
  %.0.ph.i = phi ptr [ %0, %2 ], [ %14, %.outer.i.backedge ]
  br label %3

3:                                                ; preds = %.backedge.i, %.outer.i
  %.0.i = phi ptr [ %.0.ph.i, %.outer.i ], [ %.0.be.i, %.backedge.i ]
  %4 = ptrtoint ptr %.0.i to i64
  %5 = and i64 %4, 1
  %.not.i13.i = icmp eq i64 %5, 0
  br i1 %.not.i13.i, label %9, label %6

6:                                                ; preds = %3
  %7 = lshr i64 %4, 1
  %8 = trunc i64 %7 to i32
  br label %lean_obj_tag.exit.i

9:                                                ; preds = %3
  %10 = getelementptr i8, ptr %.0.i, i64 4
  %.val.i.i = load i32, ptr %10, align 4
  %11 = lshr i32 %.val.i.i, 24
  br label %lean_obj_tag.exit.i

lean_obj_tag.exit.i:                              ; preds = %9, %6
  %.0.i14.i = phi i32 [ %8, %6 ], [ %11, %9 ]
  switch i32 %.0.i14.i, label %l_Lean_Expr_headNumArgs_go.exit [
    i32 5, label %12
    i32 8, label %35
    i32 10, label %.backedge.i
  ]

12:                                               ; preds = %lean_obj_tag.exit.i
  %13 = getelementptr inbounds nuw i8, ptr %.0.i, i64 8
  %14 = load ptr, ptr %13, align 8, !tbaa !4
  %15 = ptrtoint ptr %.012.ph.i to i64
  %16 = and i64 %15, 1
  %.not.i4 = icmp eq i64 %16, 0
  br i1 %.not.i4, label %27, label %17, !prof !13

17:                                               ; preds = %12
  %18 = lshr i64 %15, 1
  %19 = add nuw i64 %18, 1
  %20 = icmp sgt i64 %19, -1
  br i1 %20, label %21, label %25, !prof !12

21:                                               ; preds = %17
  %22 = shl nuw i64 %19, 1
  %23 = or disjoint i64 %22, 1
  %24 = inttoptr i64 %23 to ptr
  br label %.outer.i.backedge

25:                                               ; preds = %17
  %26 = tail call ptr @lean_big_usize_to_nat(i64 noundef range(i64 0, -1) %19) #3
  br label %.outer.i.backedge

27:                                               ; preds = %12
  %28 = tail call ptr @lean_nat_big_add(ptr noundef %.012.ph.i, ptr noundef nonnull inttoptr (i64 3 to ptr)) #3
  %29 = load i32, ptr %.012.ph.i, align 4, !tbaa !9
  %30 = icmp sgt i32 %29, 1
  br i1 %30, label %31, label %33, !prof !12

31:                                               ; preds = %27
  %32 = add nsw i32 %29, -1
  store i32 %32, ptr %.012.ph.i, align 4, !tbaa !9
  br label %.outer.i.backedge

33:                                               ; preds = %27
  %.not.i.i = icmp eq i32 %29, 0
  br i1 %.not.i.i, label %.outer.i.backedge, label %34

34:                                               ; preds = %33
  tail call void @lean_dec_ref_cold(ptr noundef nonnull %.012.ph.i) #3
  br label %.outer.i.backedge

.outer.i.backedge:                                ; preds = %34, %33, %31, %25, %21
  %.012.ph.i.be = phi ptr [ %28, %31 ], [ %28, %33 ], [ %28, %34 ], [ %26, %25 ], [ %24, %21 ]
  br label %.outer.i

35:                                               ; preds = %lean_obj_tag.exit.i
  br label %.backedge.i

.backedge.i:                                      ; preds = %35, %lean_obj_tag.exit.i
  %.sink.i = phi i64 [ 32, %35 ], [ 16, %lean_obj_tag.exit.i ]
  %36 = getelementptr inbounds nuw i8, ptr %.0.i, i64 %.sink.i
  %.0.be.i = load ptr, ptr %36, align 8, !tbaa !4
  br label %3

l_Lean_Expr_headNumArgs_go.exit:                  ; preds = %lean_obj_tag.exit.i
  %37 = ptrtoint ptr %0 to i64
  %38 = and i64 %37, 1
  %.not = icmp eq i64 %38, 0
  br i1 %.not, label %39, label %lean_dec.exit

39:                                               ; preds = %l_Lean_Expr_headNumArgs_go.exit
  %40 = load i32, ptr %0, align 4, !tbaa !9
  %41 = icmp sgt i32 %40, 1
  br i1 %41, label %42, label %44, !prof !12

42:                                               ; preds = %39
  %43 = add nsw i32 %40, -1
  store i32 %43, ptr %0, align 4, !tbaa !9
  br label %lean_dec.exit

44:                                               ; preds = %39
  %.not.i = icmp eq i32 %40, 0
  br i1 %.not.i, label %lean_dec.exit, label %45

45:                                               ; preds = %44
  tail call void @lean_dec_ref_cold(ptr noundef nonnull %0) #3
  br label %lean_dec.exit

lean_dec.exit:                                    ; preds = %45, %44, %42, %l_Lean_Expr_headNumArgs_go.exit
  ret ptr %.012.ph.i
}